target datalayout = "e-m:e-p270:32:32-p271:32:32-p272:64:64-i64:64-i128:128-f80:128-n8:16:32:64-S128"
target triple = "x86_64-pc-linux-gnu"

%struct.AVCodecContext = type { ptr, i32, i32, ptr, i32, i32, ptr, ptr, ptr, i64, i32, i32, ptr, i32, %struct.AVRational, %struct.AVRational, %struct.AVRational, i32, i32, i32, i32, i32, %struct.AVRational, i32, i32, i32, i32, i32, i32, i32, i32, i32, i32, i32, ptr, ptr, i32, float, float, float, float, float, float, float, float, float, i32, i32, i32, i32, i32, i32, i32, i32, i32, i32, i32, i32, ptr, ptr, ptr, i32, i32, i32, i32, i32, i32, i32, i32, i32, i32, %struct.AVChannelLayout, i32, i32, i32, i32, i32, i32, i32, i32, ptr, i32, i32, i32, float, float, i32, i32, i32, i32, i32, ptr, i64, i64, float, float, i32, i32, ptr, ptr, i32, i32, i32, i32, i32, ptr, ptr, ptr, ptr, i32, i32, [8 x i64], i32, i32, i32, i32, i32, i32, i32, ptr, ptr, i32, i32, i32, i32, i32, i32, i32, i32, i32, i32, ptr, ptr, i32, i32, ptr, ptr, ptr, ptr, i32, i32, i64, i32, i32, i64, ptr, i64, ptr, i32, ptr, i32 }
%struct.AVRational = type { i32, i32 }
%struct.AVChannelLayout = type { i32, i32, %union.anon.0, ptr }
%union.anon.0 = type { i64 }
%struct.HQXContext = type { %struct.HQXDSPContext, [8 x i8], [16 x %struct.HQXSlice], ptr, ptr, i32, i32, i32, i32, i32, ptr, i32, [17 x i32], ptr, %struct.VLC, [8 x i8] }
%struct.HQXDSPContext = type { ptr }
%struct.HQXSlice = type { %struct.GetBitContext, [16 x [64 x i16]] }
%struct.GetBitContext = type { ptr, ptr, i32, i32, i32 }
%struct.VLC = type { i32, ptr, i32, i32 }

@hqx_decode_init.init_static_once = internal global i32 0, align 4

; Function Attrs: cold nounwind optsize uwtable
define internal i32 @hqx_decode_init(ptr noundef %0) #0 {
  %2 = alloca i32, align 4
  %3 = alloca ptr, align 8
  %4 = alloca ptr, align 8
  %5 = alloca i32, align 4
  %6 = alloca i32, align 4
  store ptr %0, ptr %3, align 8, !tbaa !4
  call void @llvm.lifetime.start.p0(i64 8, ptr %4) #10
  %7 = load ptr, ptr %3, align 8, !tbaa !4
  %8 = getelementptr inbounds nuw %struct.AVCodecContext, ptr %7, i32 0, i32 6
  %9 = load ptr, ptr %8, align 8, !tbaa !9
  store ptr %9, ptr %4, align 8, !tbaa !29
  call void @llvm.lifetime.start.p0(i64 4, ptr %5) #10
  %10 = load ptr, ptr %4, align 8, !tbaa !29
  %11 = getelementptr inbounds nuw %struct.HQXContext, ptr %10, i32 0, i32 14
  %12 = call i32 @ff_vlc_init_sparse(ptr noundef %11, i32 noundef 9, i32 noundef 2048, ptr noundef @dc11_vlc_lens, i32 noundef 1, i32 noundef 1, ptr noundef @dc11_vlc_bits, i32 noundef 2, i32 noundef 2, ptr noundef null, i32 noundef 0, i32 noundef 0, i32 noundef 0)
  store i32 %12, ptr %5, align 4, !tbaa !31
  %13 = load i32, ptr %5, align 4, !tbaa !31
  %14 = icmp slt i32 %13, 0
  br i1 %14, label %15, label %17

15:                                               ; preds = %1
  %16 = load i32, ptr %5, align 4, !tbaa !31
  store i32 %16, ptr %2, align 4
  store i32 1, ptr %6, align 4
  br label %21

17:                                               ; preds = %1
  %18 = load ptr, ptr %4, align 8, !tbaa !29
  %19 = getelementptr inbounds nuw %struct.HQXContext, ptr %18, i32 0, i32 0
  call void @ff_hqxdsp_init(ptr noundef %19)
  %20 = call i32 @pthread_once(ptr noundef @hqx_decode_init.init_static_once, ptr noundef @hqx_init_static)
  store i32 0, ptr %2, align 4
  store i32 1, ptr %6, align 4
  br label %21

21:                                               ; preds = %17, %15
  call void @llvm.lifetime.end.p0(i64 4, ptr %5) #10
  call void @llvm.lifetime.end.p0(i64 8, ptr %4) #10
  %22 = load i32, ptr %2, align 4
  ret i32 %22
}