; Function Attrs: cold nounwind optsize uwtable
define internal range(i32 -2147483648, 1) i32 @hqx_decode_init(ptr noundef readonly captures(none) %0) #0 {
  %2 = getelementptr inbounds nuw i8, ptr %0, i64 32
  %3 = load ptr, ptr %2, align 8, !tbaa !4
  %4 = getelementptr inbounds nuw i8, ptr %3, i64 33424
  %5 = tail call i32 @ff_vlc_init_sparse(ptr noundef nonnull %4, i32 noundef 9, i32 noundef 2048, ptr noundef nonnull @dc11_vlc_lens, i32 noundef 1, i32 noundef 1, ptr noundef nonnull @dc11_vlc_bits, i32 noundef 2, i32 noundef 2, ptr noundef null, i32 noundef 0, i32 noundef 0, i32 noundef 0) #8
  %6 = icmp slt i32 %5, 0
  br i1 %6, label %9, label %7

7:                                                ; preds = %1
  tail call void @ff_hqxdsp_init(ptr noundef nonnull %3) #8
  %8 = tail call i32 @pthread_once(ptr noundef nonnull @hqx_decode_init.init_static_once, ptr noundef nonnull @hqx_init_static) #8
  br label %9

9:                                                ; preds = %1, %7
  %.0 = phi i32 [ 0, %7 ], [ %5, %1 ]
  ret i32 %.0
}